Certificate:
    Data:
        Version: 3 (0x2)
        Serial Number:
            b1:e3:eb:6d:b4:14:fc:fd:1e:c5:dd:ba:2a:8c:5b:15
        Signature Algorithm: sha256WithRSAEncryption
        Issuer: CN=race
        Validity
            Not Before: Feb 10 02:22:56 2024 GMT
            Not After : May 21 02:22:56 2047 GMT
        Subject: CN=race-client
        Subject Public Key Info:
            Public Key Algorithm: rsaEncryption
                RSA Public-Key: (2048 bit)
                Modulus:
                    00:d8:d7:37:35:2d:34:0e:a4:6c:50:a7:5d:b9:bc:
                    7a:05:f6:13:f9:ab:ae:7a:c1:89:38:bd:d0:d4:0b:
                    7d:83:1c:79:60:b0:5d:46:09:31:40:cc:8e:62:d6:
                    0b:ef:5f:6e:fe:49:cd:ce:91:a9:36:30:40:a3:20:
                    e8:27:37:60:6b:6c:50:f7:75:79:e1:9e:55:3f:27:
                    e0:fd:24:10:ad:d0:bb:56:23:3c:21:19:6e:d9:23:
                    34:d3:91:a2:a7:84:eb:e2:5d:0a:40:74:69:51:cc:
                    0d:e9:dc:fc:e9:c0:f8:77:07:d0:ab:42:e7:4c:ab:
                    1f:72:17:b3:c4:ef:18:c9:b0:4c:a0:50:90:a2:21:
                    f7:21:5b:64:b5:d5:12:b6:c5:e0:e5:f5:86:78:80:
                    49:08:8d:3b:da:13:c8:d3:37:3b:37:83:b4:f1:b2:
                    f8:a7:b0:97:12:cc:11:18:89:89:5f:19:74:2b:cf:
                    46:79:67:4f:9c:e8:77:14:f5:8b:21:36:e7:66:c4:
                    4e:52:fe:02:75:d2:40:a1:99:20:08:51:45:00:fa:
                    7b:87:52:7d:38:27:5a:ff:9b:33:d8:3c:c6:b7:97:
                    ad:d0:b2:8c:f0:0b:9f:fa:bf:17:d1:38:08:75:bd:
                    fd:e1:35:55:a2:95:42:ba:53:13:b1:b8:bb:97:ef:
                    a4:3b
                Exponent: 65537 (0x10001)
        X509v3 extensions:
            X509v3 Basic Constraints: 
                CA:FALSE
            X509v3 Subject Key Identifier: 
                FC:79:B2:2E:D9:CC:7B:43:14:F1:26:5B:69:C1:73:CB:25:01:C6:F1
            X509v3 Authority Key Identifier: 
                keyid:B0:8C:5C:6A:B9:72:D6:21:46:FF:26:28:A5:51:FF:8A:2A:1C:8E:5D
                DirName:/CN=race
                serial:1D:01:CE:C7:CF:D1:59:37:6B:A0:73:DF:A3:2B:69:8E:00:F6:FC:5A

            X509v3 Extended Key Usage: 
                TLS Web Client Authentication
            X509v3 Key Usage: 
                Digital Signature
    Signature Algorithm: sha256WithRSAEncryption
         8d:5f:28:0a:49:56:0e:26:fa:d4:ef:2a:98:aa:14:08:47:ab:
         fe:c7:3f:6f:75:61:65:8d:ad:90:41:12:b8:54:c0:c4:1a:ce:
         79:0f:2d:2a:4e:3c:19:56:23:c3:35:41:60:47:36:1e:e8:52:
         83:fc:27:0f:26:f8:43:97:e9:be:29:77:20:14:b3:be:b6:e4:
         b8:4b:54:b2:a1:11:19:74:c2:6a:a4:fe:48:e3:35:bc:33:da:
         0b:54:0b:9f:99:d7:06:cc:30:6c:5c:4d:aa:e9:e3:f2:77:f6:
         c1:7c:fe:d4:df:81:77:55:8c:de:26:89:4a:b3:bd:52:4c:a8:
         ab:25:8e:fc:e4:3a:d1:71:8e:eb:94:54:ae:4b:ee:54:7e:30:
         14:96:67:a9:d9:ca:8a:52:4c:87:70:96:4a:e0:14:43:00:ed:
         fd:e0:e8:16:5b:7a:42:50:db:96:4d:9e:bd:45:68:f5:f9:95:
         91:18:33:a3:08:b9:fd:c1:f3:58:ac:43:fb:f4:ab:30:a8:dc:
         73:96:6b:62:8c:95:d5:3e:36:56:aa:2b:f7:8f:0d:a9:96:12:
         b5:c5:b8:0a:8c:58:fc:ac:42:38:c1:78:e9:e2:f9:c8:c2:c4:
         83:e4:8a:ac:ba:1d:3d:9b:67:07:07:e6:21:33:93:70:a5:d5:
         6e:64:b8:28
-----BEGIN CERTIFICATE-----
MIIDTDCCAjSgAwIBAgIRALHj6220FPz9HsXduiqMWxUwDQYJKoZIhvcNAQELBQAw
DzENMAsGA1UEAwwEcmFjZTAeFw0yNDAyMTAwMjIyNTZaFw00NzA1MjEwMjIyNTZa
MBYxFDASBgNVBAMMC3JhY2UtY2xpZW50MIIBIjANBgkqhkiG9w0BAQEFAAOCAQ8A
MIIBCgKCAQEA2Nc3NS00DqRsUKddubx6BfYT+auuesGJOL3Q1At9gxx5YLBdRgkx
QMyOYtYL719u/knNzpGpNjBAoyDoJzdga2xQ93V54Z5VPyfg/SQQrdC7ViM8IRlu
2SM005Gip4Tr4l0KQHRpUcwN6dz86cD4dwfQq0LnTKsfchezxO8YybBMoFCQoiH3
IVtktdUStsXg5fWGeIBJCI072hPI0zc7N4O08bL4p7CXEswRGImJXxl0K89GeWdP
nOh3FPWLITbnZsROUv4CddJAoZkgCFFFAPp7h1J9OCda/5sz2DzGt5et0LKM8Auf
+r8X0TgIdb394TVVopVCulMTsbi7l++kOwIDAQABo4GbMIGYMAkGA1UdEwQCMAAw
HQYDVR0OBBYEFPx5si7ZzHtDFPEmW2nBc8slAcbxMEoGA1UdIwRDMEGAFLCMXGq5
ctYhRv8mKKVR/4oqHI5doROkETAPMQ0wCwYDVQQDDARyYWNlghQdAc7Hz9FZN2ug
c9+jK2mOAPb8WjATBgNVHSUEDDAKBggrBgEFBQcDAjALBgNVHQ8EBAMCB4AwDQYJ
KoZIhvcNAQELBQADggEBAI1fKApJVg4m+tTvKpiqFAhHq/7HP291YWWNrZBBErhU
wMQaznkPLSpOPBlWI8M1QWBHNh7oUoP8Jw8m+EOX6b4pdyAUs7625LhLVLKhERl0
wmqk/kjjNbwz2gtUC5+Z1wbMMGxcTarp4/J39sF8/tTfgXdVjN4miUqzvVJMqKsl
jvzkOtFxjuuUVK5L7lR+MBSWZ6nZyopSTIdwlkrgFEMA7f3g6BZbekJQ25ZNnr1F
aPX5lZEYM6MIuf3B81isQ/v0qzCo3HOWa2KMldU+NlaqK/ePDamWErXFuAqMWPys
QjjBeOni+cjCxIPkiqy6HT2bZwcH5iEzk3Cl1W5kuCg=
-----END CERTIFICATE-----
