Certificate:
    Data:
        Version: 3 (0x2)
        Serial Number:
            fa:93:ea:b7:bf:2e:fd:5c:10:e9:87:7b:7b:de:a4:99
        Signature Algorithm: sha256WithRSAEncryption
        Issuer: CN=race
        Validity
            Not Before: Feb 10 02:20:55 2024 GMT
            Not After : May 15 02:20:55 2026 GMT
        Subject: CN=race
        Subject Public Key Info:
            Public Key Algorithm: rsaEncryption
                RSA Public-Key: (2048 bit)
                Modulus:
                    00:d4:ac:4a:5a:51:fd:17:d0:9b:ff:b8:11:00:84:
                    e6:60:3f:41:f6:e9:26:e3:b4:af:a3:04:e4:c8:30:
                    86:a6:4f:ac:fe:c6:be:63:93:a5:f3:d6:77:4b:a1:
                    29:50:d4:e6:b2:14:cd:ac:0d:12:88:42:e1:d2:69:
                    b5:6f:aa:bd:05:6c:c3:f0:b1:d2:fa:7c:03:4b:9f:
                    09:ed:9a:79:8a:f8:dd:40:ed:bb:26:17:51:e4:de:
                    c3:7b:04:53:db:9d:28:64:a6:cf:0c:c5:61:a3:bb:
                    7a:a3:7b:ab:e8:af:89:fe:53:1d:75:f6:70:b9:17:
                    5e:4e:9b:2a:07:24:82:c5:65:66:a7:79:82:c8:50:
                    3b:00:dd:b4:1d:11:68:84:dd:83:31:9d:95:d8:e1:
                    b2:7f:82:06:e5:11:13:d6:71:b1:a8:0c:e2:cb:32:
                    89:be:e7:68:94:8f:fc:72:95:31:f4:e4:cc:58:07:
                    82:ea:58:6e:e5:e0:1a:65:3f:3e:3d:59:34:29:81:
                    9b:31:4f:2b:aa:37:c9:93:e3:35:21:73:19:20:6b:
                    55:a4:f2:4a:c5:27:84:e1:ac:18:77:48:49:40:3a:
                    dd:20:7e:49:c2:3a:dc:24:b0:dd:94:8c:6e:2a:21:
                    73:7c:13:81:81:57:14:62:80:95:bd:72:47:02:eb:
                    c7:1b
                Exponent: 65537 (0x10001)
        X509v3 extensions:
            X509v3 Basic Constraints: 
                CA:FALSE
            X509v3 Subject Key Identifier: 
                25:F6:8D:73:48:EB:C3:AC:9D:5A:B3:18:3B:72:2A:A3:CE:39:DB:C7
            X509v3 Authority Key Identifier: 
                keyid:B0:8C:5C:6A:B9:72:D6:21:46:FF:26:28:A5:51:FF:8A:2A:1C:8E:5D
                DirName:/CN=race
                serial:1D:01:CE:C7:CF:D1:59:37:6B:A0:73:DF:A3:2B:69:8E:00:F6:FC:5A

            X509v3 Extended Key Usage: 
                TLS Web Server Authentication
            X509v3 Key Usage: 
                Digital Signature, Key Encipherment
            X509v3 Subject Alternative Name: 
                DNS:race
    Signature Algorithm: sha256WithRSAEncryption
         2d:65:6f:63:06:2d:77:31:2b:0b:b8:1e:c6:11:4d:6d:2b:c5:
         b5:00:3d:56:e4:0d:01:bf:a8:4e:9e:5a:fc:54:20:03:df:51:
         16:57:c1:1c:90:d2:ec:9e:7f:69:f2:bb:bc:8a:9a:0e:fb:f6:
         9d:ea:cb:61:a9:83:1e:47:d9:9f:a4:e8:12:1e:7b:94:bd:ce:
         79:c2:37:0b:ac:39:b7:6a:e8:a7:0f:b8:bc:78:5e:93:c4:f7:
         74:bb:5c:f1:22:d6:12:cd:42:46:1b:03:65:7d:30:f8:4b:d1:
         0e:f1:4d:40:d1:37:20:56:b2:e8:d1:bc:63:78:d7:3a:fa:b6:
         9a:fd:43:d2:7e:48:72:11:9e:f3:81:83:c5:d6:e8:af:ce:3b:
         d9:0e:57:84:c0:11:87:4d:95:3f:bf:a1:3d:31:2a:a2:00:ff:
         4d:69:39:28:2a:93:48:1d:e0:f0:23:ce:26:34:7a:cf:56:74:
         51:41:5e:6a:60:e2:1c:8e:fa:06:92:36:54:df:7b:67:23:5a:
         92:c8:01:03:64:9f:a6:91:f4:bb:b2:59:b8:da:87:ff:b9:d5:
         c7:77:0e:94:05:4f:27:38:87:20:cf:64:5e:35:8d:eb:a0:72:
         83:12:06:9f:fe:31:32:8a:50:6a:26:99:ff:63:97:0f:8b:f5:
         8b:55:31:b2
-----BEGIN CERTIFICATE-----
MIIDVjCCAj6gAwIBAgIRAPqT6re/Lv1cEOmHe3vepJkwDQYJKoZIhvcNAQELBQAw
DzENMAsGA1UEAwwEcmFjZTAeFw0yNDAyMTAwMjIwNTVaFw0yNjA1MTUwMjIwNTVa
MA8xDTALBgNVBAMMBHJhY2UwggEiMA0GCSqGSIb3DQEBAQUAA4IBDwAwggEKAoIB
AQDUrEpaUf0X0Jv/uBEAhOZgP0H26SbjtK+jBOTIMIamT6z+xr5jk6Xz1ndLoSlQ
1OayFM2sDRKIQuHSabVvqr0FbMPwsdL6fANLnwntmnmK+N1A7bsmF1Hk3sN7BFPb
nShkps8MxWGju3qje6vor4n+Ux119nC5F15OmyoHJILFZWaneYLIUDsA3bQdEWiE
3YMxnZXY4bJ/ggblERPWcbGoDOLLMom+52iUj/xylTH05MxYB4LqWG7l4BplPz49
WTQpgZsxTyuqN8mT4zUhcxkga1Wk8krFJ4ThrBh3SElAOt0gfknCOtwksN2UjG4q
IXN8E4GBVxRigJW9ckcC68cbAgMBAAGjgawwgakwCQYDVR0TBAIwADAdBgNVHQ4E
FgQUJfaNc0jrw6ydWrMYO3Iqo84528cwSgYDVR0jBEMwQYAUsIxcarly1iFG/yYo
pVH/iiocjl2hE6QRMA8xDTALBgNVBAMMBHJhY2WCFB0BzsfP0Vk3a6Bz36MraY4A
9vxaMBMGA1UdJQQMMAoGCCsGAQUFBwMBMAsGA1UdDwQEAwIFoDAPBgNVHREECDAG
ggRyYWNlMA0GCSqGSIb3DQEBCwUAA4IBAQAtZW9jBi13MSsLuB7GEU1tK8W1AD1W
5A0Bv6hOnlr8VCAD31EWV8EckNLsnn9p8ru8ipoO+/ad6sthqYMeR9mfpOgSHnuU
vc55wjcLrDm3auinD7i8eF6TxPd0u1zxItYSzUJGGwNlfTD4S9EO8U1A0TcgVrLo
0bxjeNc6+raa/UPSfkhyEZ7zgYPF1uivzjvZDleEwBGHTZU/v6E9MSqiAP9NaTko
KpNIHeDwI84mNHrPVnRRQV5qYOIcjvoGkjZU33tnI1qSyAEDZJ+mkfS7slm42of/
udXHdw6UBU8nOIcgz2ReNY3roHKDEgaf/jEyilBqJpn/Y5cPi/WLVTGy
-----END CERTIFICATE-----
